target datalayout = "e-m:e-p270:32:32-p271:32:32-p272:64:64-i64:64-i128:128-f80:128-n8:16:32:64-S128"
target triple = "x86_64-pc-linux-gnu"

%struct.DdNode = type { i32, i32, ptr, %union.anon, i64 }
%union.anon = type { %struct.DdChildren }
%struct.DdChildren = type { ptr, ptr }
%struct.cuddPathPair = type { i32, i32 }
%struct.DdManager = type { %struct.DdNode, ptr, ptr, ptr, ptr, ptr, ptr, ptr, i32, i32, double, double, double, i32, i32, i32, i32, i32, i32, ptr, ptr, %struct.DdSubtable, i32, i32, i32, i32, i32, i32, i32, double, i32, i32, i32, ptr, i64, double, i32, ptr, ptr, ptr, ptr, ptr, ptr, ptr, i32, ptr, ptr, ptr, ptr, ptr, ptr, i32, i32, i32, double, i32, i32, i32, i32, double, double, i32, i32, i32, i32, i32, i32, i32, i32, i32, ptr, ptr, i32, i32, i32, i32, i32, i32, ptr, ptr, ptr, ptr, ptr, ptr, ptr, ptr, i32, i64, i64, i64, i32, i64, i64, double, double, double, double, double, double, i32, ptr, ptr, i64 }
%struct.DdSubtable = type { ptr, i32, i32, i32, i32, i32, i32, i32, i32, i32, i32, i32 }

@one = internal global ptr null, align 8
@zero = internal global ptr null, align 8

; Function Attrs: nounwind uwtable
define i32 @Cudd_ShortestLength(ptr noundef %0, ptr noundef %1, ptr noundef %2) #0 {
  %4 = alloca i32, align 4
  %5 = alloca ptr, align 8
  %6 = alloca ptr, align 8
  %7 = alloca ptr, align 8
  %8 = alloca ptr, align 8
  %9 = alloca ptr, align 8
  %10 = alloca ptr, align 8
  %11 = alloca i32, align 4
  %12 = alloca i32, align 4
  %13 = alloca i32, align 4
  %14 = alloca %struct.cuddPathPair, align 4
  store ptr %0, ptr %5, align 8, !tbaa !3
  store ptr %1, ptr %6, align 8, !tbaa !8
  store ptr %2, ptr %7, align 8, !tbaa !10
  call void @llvm.lifetime.start.p0(i64 8, ptr %8) #6
  call void @llvm.lifetime.start.p0(i64 8, ptr %9) #6
  call void @llvm.lifetime.start.p0(i64 8, ptr %10) #6
  call void @llvm.lifetime.start.p0(i64 4, ptr %11) #6
  call void @llvm.lifetime.start.p0(i64 4, ptr %12) #6
  %15 = load ptr, ptr %5, align 8, !tbaa !3
  %16 = getelementptr inbounds nuw %struct.DdManager, ptr %15, i32 0, i32 1
  %17 = load ptr, ptr %16, align 8, !tbaa !20
  store ptr %17, ptr @one, align 8, !tbaa !8
  %18 = load ptr, ptr %5, align 8, !tbaa !3
  %19 = getelementptr inbounds nuw %struct.DdManager, ptr %18, i32 0, i32 2
  %20 = load ptr, ptr %19, align 8, !tbaa !33
  store ptr %20, ptr @zero, align 8, !tbaa !8
  %21 = load ptr, ptr %6, align 8, !tbaa !8
  %22 = load ptr, ptr @one, align 8, !tbaa !8
  %23 = ptrtoint ptr %22 to i64
  %24 = xor i64 %23, 1
  %25 = inttoptr i64 %24 to ptr
  %26 = icmp eq ptr %21, %25
  br i1 %26, label %31, label %27

27:                                               ; preds = %3
  %28 = load ptr, ptr %6, align 8, !tbaa !8
  %29 = load ptr, ptr @zero, align 8, !tbaa !8
  %30 = icmp eq ptr %28, %29
  br i1 %30, label %31, label %32

31:                                               ; preds = %27, %3
  store i32 1000000, ptr %4, align 4
  store i32 1, ptr %13, align 4
  br label %67

32:                                               ; preds = %27
  %33 = call ptr @st__init_table(ptr noundef @st__ptrcmp, ptr noundef @st__ptrhash)
  store ptr %33, ptr %9, align 8, !tbaa !37
  %34 = load ptr, ptr %6, align 8, !tbaa !8
  %35 = load ptr, ptr %7, align 8, !tbaa !10
  %36 = load ptr, ptr %9, align 8, !tbaa !37
  %37 = call i64 @getShortest(ptr noundef %34, ptr noundef %35, ptr noundef null, ptr noundef %36)
  store i64 %37, ptr %14, align 4
  %38 = load ptr, ptr %6, align 8, !tbaa !8
  %39 = ptrtoint ptr %38 to i64
  %40 = and i64 %39, 1
  %41 = trunc i64 %40 to i32
  store i32 %41, ptr %11, align 4, !tbaa !12
  %42 = load ptr, ptr %6, align 8, !tbaa !8
  %43 = ptrtoint ptr %42 to i64
  %44 = and i64 %43, -2
  %45 = inttoptr i64 %44 to ptr
  store ptr %45, ptr %8, align 8, !tbaa !8
  %46 = load ptr, ptr %9, align 8, !tbaa !37
  %47 = load ptr, ptr %8, align 8, !tbaa !8
  %48 = call i32 @st__lookup(ptr noundef %46, ptr noundef %47, ptr noundef %10)
  %49 = icmp ne i32 %48, 0
  br i1 %49, label %51, label %50

50:                                               ; preds = %32
  store i32 -1, ptr %4, align 4
  store i32 1, ptr %13, align 4
  br label %67

51:                                               ; preds = %32
  %52 = load i32, ptr %11, align 4, !tbaa !12
  %53 = icmp ne i32 %52, 0
  br i1 %53, label %54, label %58

54:                                               ; preds = %51
  %55 = load ptr, ptr %10, align 8, !tbaa !39
  %56 = getelementptr inbounds nuw %struct.cuddPathPair, ptr %55, i32 0, i32 1
  %57 = load i32, ptr %56, align 4, !tbaa !41
  store i32 %57, ptr %12, align 4, !tbaa !12
  br label %62

58:                                               ; preds = %51
  %59 = load ptr, ptr %10, align 8, !tbaa !39
  %60 = getelementptr inbounds nuw %struct.cuddPathPair, ptr %59, i32 0, i32 0
  %61 = load i32, ptr %60, align 4, !tbaa !43
  store i32 %61, ptr %12, align 4, !tbaa !12
  br label %62

62:                                               ; preds = %58, %54
  %63 = load ptr, ptr %9, align 8, !tbaa !37
  %64 = call i32 @st__foreach(ptr noundef %63, ptr noundef @freePathPair, ptr noundef null)
  %65 = load ptr, ptr %9, align 8, !tbaa !37
  call void @st__free_table(ptr noundef %65)
  %66 = load i32, ptr %12, align 4, !tbaa !12
  store i32 %66, ptr %4, align 4
  store i32 1, ptr %13, align 4
  br label %67

67:                                               ; preds = %62, %50, %31
  call void @llvm.lifetime.end.p0(i64 4, ptr %12) #6
  call void @llvm.lifetime.end.p0(i64 4, ptr %11) #6
  call void @llvm.lifetime.end.p0(i64 8, ptr %10) #6
  call void @llvm.lifetime.end.p0(i64 8, ptr %9) #6
  call void @llvm.lifetime.end.p0(i64 8, ptr %8) #6
  %68 = load i32, ptr %4, align 4
  ret i32 %68
}