; Function Attrs: nounwind uwtable
define i32 @Cudd_ShortestLength(ptr noundef readonly captures(none) %0, ptr noundef %1, ptr noundef %2) local_unnamed_addr #2 {
  %4 = alloca ptr, align 8
  call void @llvm.lifetime.start.p0(i64 8, ptr nonnull %4) #10
  %5 = getelementptr inbounds nuw i8, ptr %0, i64 40
  %6 = load ptr, ptr %5, align 8, !tbaa !15
  store ptr %6, ptr @one, align 8, !tbaa !29
  %7 = getelementptr inbounds nuw i8, ptr %0, i64 48
  %8 = load ptr, ptr %7, align 8, !tbaa !30
  store ptr %8, ptr @zero, align 8, !tbaa !29
  %9 = ptrtoint ptr %6 to i64
  %10 = xor i64 %9, 1
  %11 = inttoptr i64 %10 to ptr
  %12 = icmp eq ptr %1, %11
  %13 = icmp eq ptr %1, %8
  %or.cond = select i1 %12, i1 true, i1 %13
  br i1 %or.cond, label %25, label %14

14:                                               ; preds = %3
  %15 = tail call ptr @st__init_table(ptr noundef nonnull @st__ptrcmp, ptr noundef nonnull @st__ptrhash) #10
  %16 = tail call fastcc i64 @getShortest(ptr noundef %1, ptr noundef %2, ptr noundef null, ptr noundef %15)
  %17 = ptrtoint ptr %1 to i64
  %18 = and i64 %17, -2
  %19 = inttoptr i64 %18 to ptr
  %20 = call i32 @st__lookup(ptr noundef %15, ptr noundef %19, ptr noundef nonnull %4) #10
  %.not = icmp eq i32 %20, 0
  br i1 %.not, label %25, label %21

21:                                               ; preds = %14
  %22 = load ptr, ptr %4, align 8
  %23 = shl i64 %17, 2
  %.015.in.idx = and i64 %23, 4
  %.015.in = getelementptr inbounds nuw i8, ptr %22, i64 %.015.in.idx
  %.015 = load i32, ptr %.015.in, align 4, !tbaa !11
  %24 = call i32 @st__foreach(ptr noundef %15, ptr noundef nonnull @freePathPair, ptr noundef null) #10
  call void @st__free_table(ptr noundef %15) #10
  br label %25

25:                                               ; preds = %14, %3, %21
  %.0 = phi i32 [ %.015, %21 ], [ 1000000, %3 ], [ -1, %14 ]
  call void @llvm.lifetime.end.p0(i64 8, ptr nonnull %4) #10
  ret i32 %.0
}